target datalayout = "e-m:e-p270:32:32-p271:32:32-p272:64:64-i64:64-i128:128-f80:128-n8:16:32:64-S128"
target triple = "x86_64-pc-linux-gnu"

@cdb_control_fields = hidden constant [6 x ptr] [ptr @hf_scsi_control_vendor_specific, ptr @hf_scsi_control_reserved, ptr @hf_scsi_control_naca, ptr @hf_scsi_control_obs1, ptr @hf_scsi_control_obs2, ptr null], align 16
@hf_scsi_control = hidden global i32 0, align 4
@ett_scsi_control = hidden global i32 0, align 4
@hf_scsi_paramlen16 = internal global i32 0, align 4
@hf_scsi_release_flags = internal global i32 0, align 4
@.str.50 = private unnamed_addr constant [38 x i8] c"Flags: 3rd Party ID = %u, LongID = %u\00", align 1
@hf_scsi_release_thirdpartyid = internal global i32 0, align 4

; Function Attrs: nounwind uwtable
define hidden void @dissect_spc_reserve10(ptr noundef %0, ptr noundef %1, ptr noundef %2, i32 noundef %3, i32 noundef %4, i32 noundef %5, i32 noundef %6, ptr noundef %7) #0 {
  %9 = alloca ptr, align 8
  %10 = alloca ptr, align 8
  %11 = alloca ptr, align 8
  %12 = alloca i32, align 4
  %13 = alloca i32, align 4
  %14 = alloca i32, align 4
  %15 = alloca i32, align 4
  %16 = alloca ptr, align 8
  %17 = alloca i8, align 1
  store ptr %0, ptr %9, align 8
  store ptr %1, ptr %10, align 8
  store ptr %2, ptr %11, align 8
  store i32 %3, ptr %12, align 4
  store i32 %4, ptr %13, align 4
  store i32 %5, ptr %14, align 4
  store i32 %6, ptr %15, align 4
  store ptr %7, ptr %16, align 8
  %18 = load ptr, ptr %11, align 8
  %19 = icmp ne ptr %18, null
  br i1 %19, label %21, label %20

20:                                               ; preds = %8
  br label %69

21:                                               ; preds = %8
  %22 = load i32, ptr %13, align 4
  %23 = icmp ne i32 %22, 0
  br i1 %23, label %24, label %69

24:                                               ; preds = %21
  %25 = load i32, ptr %14, align 4
  %26 = icmp ne i32 %25, 0
  br i1 %26, label %27, label %69

27:                                               ; preds = %24
  %28 = load ptr, ptr %9, align 8
  %29 = load i32, ptr %12, align 4
  %30 = call zeroext i8 @tvb_get_guint8(ptr noundef %28, i32 noundef %29)
  store i8 %30, ptr %17, align 1
  %31 = load ptr, ptr %11, align 8
  %32 = load i32, ptr @hf_scsi_release_flags, align 4
  %33 = load ptr, ptr %9, align 8
  %34 = load i32, ptr %12, align 4
  %35 = load i8, ptr %17, align 1
  %36 = zext i8 %35 to i32
  %37 = load i8, ptr %17, align 1
  %38 = zext i8 %37 to i32
  %39 = and i32 %38, 16
  %40 = load i8, ptr %17, align 1
  %41 = zext i8 %40 to i32
  %42 = and i32 %41, 2
  %43 = call ptr (ptr, i32, ptr, i32, i32, i32, ptr, ...) @proto_tree_add_uint_format(ptr noundef %31, i32 noundef %32, ptr noundef %33, i32 noundef %34, i32 noundef 1, i32 noundef %36, ptr noundef @.str.50, i32 noundef %39, i32 noundef %42)
  %44 = load i8, ptr %17, align 1
  %45 = zext i8 %44 to i32
  %46 = and i32 %45, 18
  %47 = icmp eq i32 %46, 16
  br i1 %47, label %48, label %55

48:                                               ; preds = %27
  %49 = load ptr, ptr %11, align 8
  %50 = load i32, ptr @hf_scsi_release_thirdpartyid, align 4
  %51 = load ptr, ptr %9, align 8
  %52 = load i32, ptr %12, align 4
  %53 = add i32 %52, 2
  %54 = call ptr @proto_tree_add_item(ptr noundef %49, i32 noundef %50, ptr noundef %51, i32 noundef %53, i32 noundef 1, i32 noundef 0)
  br label %55

55:                                               ; preds = %48, %27
  %56 = load ptr, ptr %11, align 8
  %57 = load i32, ptr @hf_scsi_paramlen16, align 4
  %58 = load ptr, ptr %9, align 8
  %59 = load i32, ptr %12, align 4
  %60 = add i32 %59, 6
  %61 = call ptr @proto_tree_add_item(ptr noundef %56, i32 noundef %57, ptr noundef %58, i32 noundef %60, i32 noundef 2, i32 noundef 0)
  %62 = load ptr, ptr %11, align 8
  %63 = load ptr, ptr %9, align 8
  %64 = load i32, ptr %12, align 4
  %65 = add i32 %64, 8
  %66 = load i32, ptr @hf_scsi_control, align 4
  %67 = load i32, ptr @ett_scsi_control, align 4
  %68 = call ptr @proto_tree_add_bitmask(ptr noundef %62, ptr noundef %63, i32 noundef %65, i32 noundef %66, i32 noundef %67, ptr noundef @cdb_control_fields, i32 noundef 0)
  br label %69

69:                                               ; preds = %55, %24, %21, %20
  ret void
}