; Function Attrs: nounwind uwtable
define hidden void @dissect_spc_reserve10(ptr noundef %0, ptr readnone captures(none) %1, ptr noundef %2, i32 noundef %3, i32 noundef %4, i32 noundef %5, i32 %6, ptr readnone captures(none) %7) #0 {
  %9 = icmp ne ptr %2, null
  %10 = icmp ne i32 %4, 0
  %or.cond = and i1 %9, %10
  %11 = icmp ne i32 %5, 0
  %or.cond3 = and i1 %or.cond, %11
  br i1 %or.cond3, label %12, label %33

12:                                               ; preds = %8
  %13 = tail call zeroext i8 @tvb_get_guint8(ptr noundef %0, i32 noundef %3) #10
  %14 = load i32, ptr @hf_scsi_release_flags, align 4
  %15 = zext i8 %13 to i32
  %16 = and i32 %15, 16
  %17 = and i32 %15, 2
  %18 = tail call ptr (ptr, i32, ptr, i32, i32, i32, ptr, ...) @proto_tree_add_uint_format(ptr noundef nonnull %2, i32 noundef %14, ptr noundef %0, i32 noundef %3, i32 noundef 1, i32 noundef %15, ptr noundef nonnull @.str.50, i32 noundef %16, i32 noundef %17) #10
  %19 = and i32 %15, 18
  %20 = icmp eq i32 %19, 16
  br i1 %20, label %21, label %25

21:                                               ; preds = %12
  %22 = load i32, ptr @hf_scsi_release_thirdpartyid, align 4
  %23 = add i32 %3, 2
  %24 = tail call ptr @proto_tree_add_item(ptr noundef nonnull %2, i32 noundef %22, ptr noundef %0, i32 noundef %23, i32 noundef 1, i32 noundef 0) #10
  br label %25

25:                                               ; preds = %21, %12
  %26 = load i32, ptr @hf_scsi_paramlen16, align 4
  %27 = add i32 %3, 6
  %28 = tail call ptr @proto_tree_add_item(ptr noundef nonnull %2, i32 noundef %26, ptr noundef %0, i32 noundef %27, i32 noundef 2, i32 noundef 0) #10
  %29 = add i32 %3, 8
  %30 = load i32, ptr @hf_scsi_control, align 4
  %31 = load i32, ptr @ett_scsi_control, align 4
  %32 = tail call ptr @proto_tree_add_bitmask(ptr noundef nonnull %2, ptr noundef %0, i32 noundef %29, i32 noundef %30, i32 noundef %31, ptr noundef nonnull @cdb_control_fields, i32 noundef 0) #10
  br label %33

33:                                               ; preds = %8, %25
  ret void
}